target datalayout = "e-m:e-p270:32:32-p271:32:32-p272:64:64-i64:64-i128:128-f80:128-n8:16:32:64-S128"
target triple = "x86_64-pc-linux-gnu"

%"class.cv::utils::trace::details::Region" = type <{ ptr, i32, [4 x i8] }>

; Function Attrs: mustprogress uwtable
define noundef i32 @_ZN2cv3dnn14dnn4_v202412233Net8addLayerERKNSt7__cxx1112basic_stringIcSt11char_traitsIcESaIcEEESA_RNS1_11LayerParamsE(ptr noundef nonnull align 8 dereferenceable(16) %0, ptr noundef nonnull align 8 dereferenceable(32) %1, ptr noundef nonnull align 8 dereferenceable(32) %2, ptr noundef nonnull align 8 dereferenceable(136) %3) #4 align 2 personality ptr @__gxx_personality_v0 {
  %5 = alloca ptr, align 8
  %6 = alloca ptr, align 8
  %7 = alloca ptr, align 8
  %8 = alloca ptr, align 8
  %9 = alloca %"class.cv::utils::trace::details::Region", align 8
  %10 = alloca i32, align 4
  %11 = alloca ptr, align 8
  %12 = alloca i32, align 4
  store ptr %0, ptr %5, align 8, !tbaa !3
  store ptr %1, ptr %6, align 8, !tbaa !12
  store ptr %2, ptr %7, align 8, !tbaa !12
  store ptr %3, ptr %8, align 8, !tbaa !16
  %13 = load ptr, ptr %5, align 8
  call void @llvm.lifetime.start.p0(i64 16, ptr %9) #3
  call void @_ZN2cv5utils5trace7details6RegionC1ERKNS3_21LocationStaticStorageE(ptr noundef nonnull align 8 dereferenceable(12) %9, ptr noundef nonnull align 8 dereferenceable(32) @_ZZN2cv3dnn14dnn4_v202412233Net8addLayerERKNSt7__cxx1112basic_stringIcSt11char_traitsIcESaIcEEESA_RNS1_11LayerParamsEE24__cv_trace_location_fn32)
  %14 = load ptr, ptr %6, align 8, !tbaa !12
  %15 = load ptr, ptr %7, align 8, !tbaa !12
  call void @llvm.lifetime.start.p0(i64 4, ptr %10) #3
  store i32 5, ptr %10, align 4, !tbaa !8
  %16 = load ptr, ptr %8, align 8, !tbaa !16
  %17 = invoke noundef i32 @_ZN2cv3dnn14dnn4_v202412233Net8addLayerERKNSt7__cxx1112basic_stringIcSt11char_traitsIcESaIcEEESA_RKiRNS1_11LayerParamsE(ptr noundef nonnull align 8 dereferenceable(16) %13, ptr noundef nonnull align 8 dereferenceable(32) %14, ptr noundef nonnull align 8 dereferenceable(32) %15, ptr noundef nonnull align 4 dereferenceable(4) %10, ptr noundef nonnull align 8 dereferenceable(136) %16)
          to label %18 unwind label %19

18:                                               ; preds = %4
  call void @llvm.lifetime.end.p0(i64 4, ptr %10) #3
  call void @_ZN2cv5utils5trace7details6RegionD2Ev(ptr noundef nonnull align 8 dereferenceable(12) %9) #3
  call void @llvm.lifetime.end.p0(i64 16, ptr %9) #3
  ret i32 %17

19:                                               ; preds = %4
  %20 = landingpad { ptr, i32 }
          cleanup
  %21 = extractvalue { ptr, i32 } %20, 0
  store ptr %21, ptr %11, align 8
  %22 = extractvalue { ptr, i32 } %20, 1
  store i32 %22, ptr %12, align 4
  call void @llvm.lifetime.end.p0(i64 4, ptr %10) #3
  call void @_ZN2cv5utils5trace7details6RegionD2Ev(ptr noundef nonnull align 8 dereferenceable(12) %9) #3
  call void @llvm.lifetime.end.p0(i64 16, ptr %9) #3
  br label %23

23:                                               ; preds = %19
  %24 = load ptr, ptr %11, align 8
  %25 = load i32, ptr %12, align 4
  %26 = insertvalue { ptr, i32 } poison, ptr %24, 0
  %27 = insertvalue { ptr, i32 } %26, i32 %25, 1
  resume { ptr, i32 } %27
}