; Function Attrs: mustprogress uwtable
define noundef i32 @_ZN2cv3dnn14dnn4_v202412233Net8addLayerERKNSt7__cxx1112basic_stringIcSt11char_traitsIcESaIcEEESA_RNS1_11LayerParamsE(ptr noundef nonnull readonly align 8 captures(none) dereferenceable(16) %0, ptr noundef nonnull align 8 dereferenceable(32) %1, ptr noundef nonnull align 8 dereferenceable(32) %2, ptr noundef nonnull align 8 dereferenceable(136) %3) local_unnamed_addr #3 align 2 personality ptr @__gxx_personality_v0 {
  %5 = alloca %"class.cv::utils::trace::details::Region", align 8
  %6 = alloca i32, align 4
  call void @llvm.lifetime.start.p0(i64 16, ptr nonnull %5) #21
  call void @_ZN2cv5utils5trace7details6RegionC1ERKNS3_21LocationStaticStorageE(ptr noundef nonnull align 8 dereferenceable(12) %5, ptr noundef nonnull align 8 dereferenceable(32) @_ZZN2cv3dnn14dnn4_v202412233Net8addLayerERKNSt7__cxx1112basic_stringIcSt11char_traitsIcESaIcEEESA_RNS1_11LayerParamsEE24__cv_trace_location_fn32)
  call void @llvm.lifetime.start.p0(i64 4, ptr nonnull %6) #21
  store i32 5, ptr %6, align 4, !tbaa !35
  %7 = invoke noundef i32 @_ZN2cv3dnn14dnn4_v202412233Net8addLayerERKNSt7__cxx1112basic_stringIcSt11char_traitsIcESaIcEEESA_RKiRNS1_11LayerParamsE(ptr noundef nonnull align 8 dereferenceable(16) %0, ptr noundef nonnull align 8 dereferenceable(32) %1, ptr noundef nonnull align 8 dereferenceable(32) %2, ptr noundef nonnull align 4 dereferenceable(4) %6, ptr noundef nonnull align 8 dereferenceable(136) %3)
          to label %8 unwind label %15

8:                                                ; preds = %4
  call void @llvm.lifetime.end.p0(i64 4, ptr nonnull %6) #21
  %9 = getelementptr inbounds nuw i8, ptr %5, i64 8
  %10 = load i32, ptr %9, align 8, !tbaa !33
  %.not.i = icmp eq i32 %10, 0
  br i1 %.not.i, label %_ZN2cv5utils5trace7details6RegionD2Ev.exit, label %11

11:                                               ; preds = %8
  invoke void @_ZN2cv5utils5trace7details6Region7destroyEv(ptr noundef nonnull align 8 dereferenceable(12) %5)
          to label %_ZN2cv5utils5trace7details6RegionD2Ev.exit unwind label %12

12:                                               ; preds = %11
  %13 = landingpad { ptr, i32 }
          catch ptr null
  %14 = extractvalue { ptr, i32 } %13, 0
  call void @__clang_call_terminate(ptr %14) #23
  unreachable

_ZN2cv5utils5trace7details6RegionD2Ev.exit:       ; preds = %8, %11
  call void @llvm.lifetime.end.p0(i64 16, ptr nonnull %5) #21
  ret i32 %7

15:                                               ; preds = %4
  %16 = landingpad { ptr, i32 }
          cleanup
  call void @llvm.lifetime.end.p0(i64 4, ptr nonnull %6) #21
  call void @_ZN2cv5utils5trace7details6RegionD2Ev(ptr noundef nonnull align 8 dereferenceable(12) %5) #21
  call void @llvm.lifetime.end.p0(i64 16, ptr nonnull %5) #21
  resume { ptr, i32 } %16
}